target datalayout = "e-m:e-p270:32:32-p271:32:32-p272:64:64-i64:64-i128:128-f80:128-n8:16:32:64-S128"
target triple = "x86_64-pc-linux-gnu"

%struct._GtkTreeIter = type { i32, ptr, ptr, ptr }
%struct.dt_history_copy_item_t = type { ptr, ptr, i32, i32, i32 }

@.str.8 = private unnamed_addr constant [7 x i8] c"column\00", align 1

; Function Attrs: nounwind uwtable
define internal void @_gui_hist_item_toggled(ptr noundef %0, ptr noundef %1, ptr noundef %2) #0 {
  %4 = alloca ptr, align 8
  %5 = alloca ptr, align 8
  %6 = alloca ptr, align 8
  %7 = alloca ptr, align 8
  %8 = alloca i32, align 4
  %9 = alloca ptr, align 8
  %10 = alloca ptr, align 8
  %11 = alloca %struct._GtkTreeIter, align 8
  %12 = alloca i32, align 4
  store ptr %0, ptr %4, align 8, !tbaa !95
  store ptr %1, ptr %5, align 8, !tbaa !94
  store ptr %2, ptr %6, align 8, !tbaa !15
  call void @llvm.lifetime.start.p0(i64 8, ptr %7) #8
  %13 = load ptr, ptr %6, align 8, !tbaa !15
  store ptr %13, ptr %7, align 8, !tbaa !20
  call void @llvm.lifetime.start.p0(i64 4, ptr %8) #8
  %14 = load ptr, ptr %4, align 8, !tbaa !95
  %15 = call ptr @g_type_check_instance_cast(ptr noundef %14, i64 noundef 80)
  %16 = call ptr @g_object_get_data(ptr noundef %15, ptr noundef @.str.8)
  %17 = ptrtoint ptr %16 to i64
  %18 = trunc i64 %17 to i32
  store i32 %18, ptr %8, align 4, !tbaa !22
  call void @llvm.lifetime.start.p0(i64 8, ptr %9) #8
  %19 = load ptr, ptr %7, align 8, !tbaa !20
  %20 = getelementptr inbounds nuw %struct.dt_history_copy_item_t, ptr %19, i32 0, i32 1
  %21 = load ptr, ptr %20, align 8, !tbaa !72
  %22 = call i64 @gtk_tree_view_get_type() #9
  %23 = call ptr @g_type_check_instance_cast(ptr noundef %21, i64 noundef %22)
  %24 = call ptr @gtk_tree_view_get_model(ptr noundef %23)
  store ptr %24, ptr %9, align 8, !tbaa !18
  call void @llvm.lifetime.start.p0(i64 8, ptr %10) #8
  %25 = load ptr, ptr %5, align 8, !tbaa !94
  %26 = call ptr @gtk_tree_path_new_from_string(ptr noundef %25)
  store ptr %26, ptr %10, align 8, !tbaa !11
  call void @llvm.lifetime.start.p0(i64 32, ptr %11) #8
  call void @llvm.lifetime.start.p0(i64 4, ptr %12) #8
  %27 = load ptr, ptr %9, align 8, !tbaa !18
  %28 = load ptr, ptr %10, align 8, !tbaa !11
  %29 = call i32 @gtk_tree_model_get_iter(ptr noundef %27, ptr noundef %11, ptr noundef %28)
  %30 = load ptr, ptr %9, align 8, !tbaa !18
  %31 = load i32, ptr %8, align 4, !tbaa !22
  call void (ptr, ptr, ...) @gtk_tree_model_get(ptr noundef %30, ptr noundef %11, i32 noundef %31, ptr noundef %12, i32 noundef -1)
  %32 = load i32, ptr %12, align 4, !tbaa !22
  %33 = icmp eq i32 %32, 1
  %34 = select i1 %33, i32 0, i32 1
  store i32 %34, ptr %12, align 4, !tbaa !22
  %35 = load ptr, ptr %9, align 8, !tbaa !18
  %36 = call i64 @gtk_list_store_get_type() #9
  %37 = call ptr @g_type_check_instance_cast(ptr noundef %35, i64 noundef %36)
  %38 = load i32, ptr %8, align 4, !tbaa !22
  %39 = load i32, ptr %12, align 4, !tbaa !22
  call void (ptr, ptr, ...) @gtk_list_store_set(ptr noundef %37, ptr noundef %11, i32 noundef %38, i32 noundef %39, i32 noundef -1)
  %40 = load ptr, ptr %10, align 8, !tbaa !11
  call void @gtk_tree_path_free(ptr noundef %40)
  call void @llvm.lifetime.end.p0(i64 4, ptr %12) #8
  call void @llvm.lifetime.end.p0(i64 32, ptr %11) #8
  call void @llvm.lifetime.end.p0(i64 8, ptr %10) #8
  call void @llvm.lifetime.end.p0(i64 8, ptr %9) #8
  call void @llvm.lifetime.end.p0(i64 4, ptr %8) #8
  call void @llvm.lifetime.end.p0(i64 8, ptr %7) #8
  ret void
}