; Function Attrs: nounwind uwtable
define internal void @_gui_hist_item_toggled(ptr noundef %0, ptr noundef %1, ptr noundef readonly captures(none) %2) #0 {
  %4 = alloca %struct._GtkTreeIter, align 8
  %5 = alloca i32, align 4
  %6 = tail call ptr @g_type_check_instance_cast(ptr noundef %0, i64 noundef 80) #10
  %7 = tail call ptr @g_object_get_data(ptr noundef %6, ptr noundef nonnull @.str.8) #10
  %8 = ptrtoint ptr %7 to i64
  %9 = trunc i64 %8 to i32
  %10 = getelementptr inbounds nuw i8, ptr %2, i64 8
  %11 = load ptr, ptr %10, align 8, !tbaa !55
  %12 = tail call i64 @gtk_tree_view_get_type() #9
  %13 = tail call ptr @g_type_check_instance_cast(ptr noundef %11, i64 noundef %12) #10
  %14 = tail call ptr @gtk_tree_view_get_model(ptr noundef %13) #10
  %15 = tail call ptr @gtk_tree_path_new_from_string(ptr noundef %1) #10
  call void @llvm.lifetime.start.p0(i64 32, ptr nonnull %4) #10
  call void @llvm.lifetime.start.p0(i64 4, ptr nonnull %5) #10
  %16 = call i32 @gtk_tree_model_get_iter(ptr noundef %14, ptr noundef nonnull %4, ptr noundef %15) #10
  call void (ptr, ptr, ...) @gtk_tree_model_get(ptr noundef %14, ptr noundef nonnull %4, i32 noundef %9, ptr noundef nonnull %5, i32 noundef -1) #10
  %17 = load i32, ptr %5, align 4, !tbaa !71
  %18 = icmp ne i32 %17, 1
  %19 = zext i1 %18 to i32
  store i32 %19, ptr %5, align 4, !tbaa !71
  %20 = tail call i64 @gtk_list_store_get_type() #9
  %21 = call ptr @g_type_check_instance_cast(ptr noundef %14, i64 noundef %20) #10
  %22 = load i32, ptr %5, align 4, !tbaa !71
  call void (ptr, ptr, ...) @gtk_list_store_set(ptr noundef %21, ptr noundef nonnull %4, i32 noundef %9, i32 noundef %22, i32 noundef -1) #10
  call void @gtk_tree_path_free(ptr noundef %15) #10
  call void @llvm.lifetime.end.p0(i64 4, ptr nonnull %5) #10
  call void @llvm.lifetime.end.p0(i64 32, ptr nonnull %4) #10
  ret void
}